; ModuleID = 'source-C-CXX/10/1067.cpp'
source_filename = "source-C-CXX/10/1067.cpp"
target datalayout = "e-m:e-p270:32:32-p271:32:32-p272:64:64-i64:64-f80:128-n8:16:32:64-S128"
target triple = "x86_64-pc-linux-gnu"

%"class.std::ios_base::Init" = type { i8 }
%"class.std::basic_istream" = type { i32 (...)**, i64, %"class.std::basic_ios" }
%"class.std::basic_ios" = type { %"class.std::ios_base", %"class.std::basic_ostream"*, i8, i8, %"class.std::basic_streambuf"*, %"class.std::ctype"*, %"class.std::num_put"*, %"class.std::num_get"* }
%"class.std::ios_base" = type { i32 (...)**, i64, i64, i32, i32, i32, %"struct.std::ios_base::_Callback_list"*, %"struct.std::ios_base::_Words", [8 x %"struct.std::ios_base::_Words"], i32, %"struct.std::ios_base::_Words"*, %"class.std::locale" }
%"struct.std::ios_base::_Callback_list" = type { %"struct.std::ios_base::_Callback_list"*, void (i32, %"class.std::ios_base"*, i32)*, i32, i32 }
%"struct.std::ios_base::_Words" = type { i8*, i64 }
%"class.std::locale" = type { %"class.std::locale::_Impl"* }
%"class.std::locale::_Impl" = type { i32, %"class.std::locale::facet"**, i64, %"class.std::locale::facet"**, i8** }
%"class.std::locale::facet" = type <{ i32 (...)**, i32, [4 x i8] }>
%"class.std::basic_ostream" = type { i32 (...)**, %"class.std::basic_ios" }
%"class.std::basic_streambuf" = type { i32 (...)**, i8*, i8*, i8*, i8*, i8*, i8*, %"class.std::locale" }
%"class.std::ctype" = type <{ %"class.std::locale::facet.base", [4 x i8], %struct.__locale_struct*, i8, [7 x i8], i32*, i32*, i16*, i8, [256 x i8], [256 x i8], i8, [6 x i8] }>
%"class.std::locale::facet.base" = type <{ i32 (...)**, i32 }>
%struct.__locale_struct = type { [13 x %struct.__locale_data*], i16*, i32*, i32*, [13 x i8*] }
%struct.__locale_data = type opaque
%"class.std::num_put" = type { %"class.std::locale::facet.base", [4 x i8] }
%"class.std::num_get" = type { %"class.std::locale::facet.base", [4 x i8] }

@_ZStL8__ioinit = internal global %"class.std::ios_base::Init" zeroinitializer, align 1
@__dso_handle = external hidden global i8
@__const.main.a = private unnamed_addr constant [12 x i32] [i32 31, i32 28, i32 31, i32 30, i32 31, i32 30, i32 31, i32 31, i32 30, i32 31, i32 30, i32 31], align 16
@_ZSt3cin = external global %"class.std::basic_istream", align 8
@_ZSt4cout = external global %"class.std::basic_ostream", align 8
@llvm.global_ctors = appending global [1 x { i32, void ()*, i8* }] [{ i32, void ()*, i8* } { i32 65535, void ()* @_GLOBAL__sub_I_1067.cpp, i8* null }]

declare void @_ZNSt8ios_base4InitC1Ev(%"class.std::ios_base::Init"* nonnull align 1 dereferenceable(1)) unnamed_addr #0

; Function Attrs: nounwind
declare void @_ZNSt8ios_base4InitD1Ev(%"class.std::ios_base::Init"* nonnull align 1 dereferenceable(1)) unnamed_addr #1

; Function Attrs: nofree nounwind
declare i32 @__cxa_atexit(void (i8*)*, i8*, i8*) local_unnamed_addr #2

; Function Attrs: mustprogress norecurse sspstrong uwtable
define dso_local i32 @main() local_unnamed_addr #3 {
  %1 = alloca [12 x i32], align 16
  %2 = alloca i32, align 4
  %3 = alloca i32, align 4
  %4 = alloca i32, align 4
  %5 = bitcast [12 x i32]* %1 to i8*
  call void @llvm.lifetime.start.p0i8(i64 48, i8* nonnull %5) #9
  call void @llvm.memcpy.p0i8.p0i8.i64(i8* noundef nonnull align 16 dereferenceable(48) %5, i8* noundef nonnull align 16 dereferenceable(48) bitcast ([12 x i32]* @__const.main.a to i8*), i64 48, i1 false)
  %6 = bitcast i32* %2 to i8*
  call void @llvm.lifetime.start.p0i8(i64 4, i8* nonnull %6) #9
  store i32 0, i32* %2, align 4, !tbaa !5
  %7 = bitcast i32* %3 to i8*
  call void @llvm.lifetime.start.p0i8(i64 4, i8* nonnull %7) #9
  store i32 0, i32* %3, align 4, !tbaa !5
  %8 = bitcast i32* %4 to i8*
  call void @llvm.lifetime.start.p0i8(i64 4, i8* nonnull %8) #9
  store i32 0, i32* %4, align 4, !tbaa !5
  %9 = call nonnull align 8 dereferenceable(16) %"class.std::basic_istream"* @_ZNSirsERi(%"class.std::basic_istream"* nonnull align 8 dereferenceable(16) @_ZSt3cin, i32* nonnull align 4 dereferenceable(4) %2)
  %10 = call nonnull align 8 dereferenceable(16) %"class.std::basic_istream"* @_ZNSirsERi(%"class.std::basic_istream"* nonnull align 8 dereferenceable(16) %9, i32* nonnull align 4 dereferenceable(4) %3)
  %11 = call nonnull align 8 dereferenceable(16) %"class.std::basic_istream"* @_ZNSirsERi(%"class.std::basic_istream"* nonnull align 8 dereferenceable(16) %10, i32* nonnull align 4 dereferenceable(4) %4)
  %12 = load i32, i32* %2, align 4, !tbaa !5
  %13 = srem i32 %12, 100
  %14 = srem i32 %12, 400
  %15 = or i32 %13, %14
  %16 = icmp eq i32 %15, 0
  br i1 %16, label %22, label %17

17:                                               ; preds = %0
  %18 = icmp ne i32 %13, 0
  %19 = and i32 %12, 3
  %20 = icmp eq i32 %19, 0
  %21 = and i1 %18, %20
  br i1 %21, label %22, label %24

22:                                               ; preds = %17, %0
  %23 = getelementptr inbounds [12 x i32], [12 x i32]* %1, i64 0, i64 1
  store i32 29, i32* %23, align 4, !tbaa !5
  br label %24

24:                                               ; preds = %22, %17
  %25 = load i32, i32* %3, align 4, !tbaa !5
  %26 = icmp sgt i32 %25, 1
  br i1 %26, label %27, label %123

27:                                               ; preds = %24
  %28 = add nsw i32 %25, -1
  %29 = zext i32 %28 to i64
  %30 = icmp ult i32 %28, 8
  br i1 %30, label %112, label %31

31:                                               ; preds = %27
  %32 = and i64 %29, 4294967288
  %33 = add nsw i64 %32, -8
  %34 = lshr exact i64 %33, 3
  %35 = add nuw nsw i64 %34, 1
  %36 = and i64 %35, 3
  %37 = icmp ult i64 %33, 24
  br i1 %37, label %83, label %38

38:                                               ; preds = %31
  %39 = and i64 %35, 4611686018427387900
  br label %40

40:                                               ; preds = %40, %38
  %41 = phi i64 [ 0, %38 ], [ %80, %40 ]
  %42 = phi <4 x i32> [ zeroinitializer, %38 ], [ %78, %40 ]
  %43 = phi <4 x i32> [ zeroinitializer, %38 ], [ %79, %40 ]
  %44 = phi i64 [ %39, %38 ], [ %81, %40 ]
  %45 = getelementptr inbounds [12 x i32], [12 x i32]* %1, i64 0, i64 %41
  %46 = bitcast i32* %45 to <4 x i32>*
  %47 = load <4 x i32>, <4 x i32>* %46, align 16, !tbaa !5
  %48 = getelementptr inbounds i32, i32* %45, i64 4
  %49 = bitcast i32* %48 to <4 x i32>*
  %50 = load <4 x i32>, <4 x i32>* %49, align 16, !tbaa !5
  %51 = add <4 x i32> %47, %42
  %52 = add <4 x i32> %50, %43
  %53 = or i64 %41, 8
  %54 = getelementptr inbounds [12 x i32], [12 x i32]* %1, i64 0, i64 %53
  %55 = bitcast i32* %54 to <4 x i32>*
  %56 = load <4 x i32>, <4 x i32>* %55, align 16, !tbaa !5
  %57 = getelementptr inbounds i32, i32* %54, i64 4
  %58 = bitcast i32* %57 to <4 x i32>*
  %59 = load <4 x i32>, <4 x i32>* %58, align 16, !tbaa !5
  %60 = add <4 x i32> %56, %51
  %61 = add <4 x i32> %59, %52
  %62 = or i64 %41, 16
  %63 = getelementptr inbounds [12 x i32], [12 x i32]* %1, i64 0, i64 %62
  %64 = bitcast i32* %63 to <4 x i32>*
  %65 = load <4 x i32>, <4 x i32>* %64, align 16, !tbaa !5
  %66 = getelementptr inbounds i32, i32* %63, i64 4
  %67 = bitcast i32* %66 to <4 x i32>*
  %68 = load <4 x i32>, <4 x i32>* %67, align 16, !tbaa !5
  %69 = add <4 x i32> %65, %60
  %70 = add <4 x i32> %68, %61
  %71 = or i64 %41, 24
  %72 = getelementptr inbounds [12 x i32], [12 x i32]* %1, i64 0, i64 %71
  %73 = bitcast i32* %72 to <4 x i32>*
  %74 = load <4 x i32>, <4 x i32>* %73, align 16, !tbaa !5
  %75 = getelementptr inbounds i32, i32* %72, i64 4
  %76 = bitcast i32* %75 to <4 x i32>*
  %77 = load <4 x i32>, <4 x i32>* %76, align 16, !tbaa !5
  %78 = add <4 x i32> %74, %69
  %79 = add <4 x i32> %77, %70
  %80 = add nuw i64 %41, 32
  %81 = add i64 %44, -4
  %82 = icmp eq i64 %81, 0
  br i1 %82, label %83, label %40, !llvm.loop !9

83:                                               ; preds = %40, %31
  %84 = phi <4 x i32> [ undef, %31 ], [ %78, %40 ]
  %85 = phi <4 x i32> [ undef, %31 ], [ %79, %40 ]
  %86 = phi i64 [ 0, %31 ], [ %80, %40 ]
  %87 = phi <4 x i32> [ zeroinitializer, %31 ], [ %78, %40 ]
  %88 = phi <4 x i32> [ zeroinitializer, %31 ], [ %79, %40 ]
  %89 = icmp eq i64 %36, 0
  br i1 %89, label %106, label %90

90:                                               ; preds = %83, %90
  %91 = phi i64 [ %103, %90 ], [ %86, %83 ]
  %92 = phi <4 x i32> [ %101, %90 ], [ %87, %83 ]
  %93 = phi <4 x i32> [ %102, %90 ], [ %88, %83 ]
  %94 = phi i64 [ %104, %90 ], [ %36, %83 ]
  %95 = getelementptr inbounds [12 x i32], [12 x i32]* %1, i64 0, i64 %91
  %96 = bitcast i32* %95 to <4 x i32>*
  %97 = load <4 x i32>, <4 x i32>* %96, align 16, !tbaa !5
  %98 = getelementptr inbounds i32, i32* %95, i64 4
  %99 = bitcast i32* %98 to <4 x i32>*
  %100 = load <4 x i32>, <4 x i32>* %99, align 16, !tbaa !5
  %101 = add <4 x i32> %97, %92
  %102 = add <4 x i32> %100, %93
  %103 = add nuw i64 %91, 8
  %104 = add i64 %94, -1
  %105 = icmp eq i64 %104, 0
  br i1 %105, label %106, label %90, !llvm.loop !12

106:                                              ; preds = %90, %83
  %107 = phi <4 x i32> [ %84, %83 ], [ %101, %90 ]
  %108 = phi <4 x i32> [ %85, %83 ], [ %102, %90 ]
  %109 = add <4 x i32> %108, %107
  %110 = call i32 @llvm.vector.reduce.add.v4i32(<4 x i32> %109)
  %111 = icmp eq i64 %32, %29
  br i1 %111, label %123, label %112

112:                                              ; preds = %27, %106
  %113 = phi i64 [ 0, %27 ], [ %32, %106 ]
  %114 = phi i32 [ 0, %27 ], [ %110, %106 ]
  br label %115

115:                                              ; preds = %112, %115
  %116 = phi i64 [ %121, %115 ], [ %113, %112 ]
  %117 = phi i32 [ %120, %115 ], [ %114, %112 ]
  %118 = getelementptr inbounds [12 x i32], [12 x i32]* %1, i64 0, i64 %116
  %119 = load i32, i32* %118, align 4, !tbaa !5
  %120 = add nsw i32 %119, %117
  %121 = add nuw nsw i64 %116, 1
  %122 = icmp eq i64 %121, %29
  br i1 %122, label %123, label %115, !llvm.loop !14

123:                                              ; preds = %115, %106, %24
  %124 = phi i32 [ 0, %24 ], [ %110, %106 ], [ %120, %115 ]
  %125 = load i32, i32* %4, align 4, !tbaa !5
  %126 = add nsw i32 %125, %124
  %127 = call nonnull align 8 dereferenceable(8) %"class.std::basic_ostream"* @_ZNSolsEi(%"class.std::basic_ostream"* nonnull align 8 dereferenceable(8) @_ZSt4cout, i32 %126)
  %128 = bitcast %"class.std::basic_ostream"* %127 to i8**
  %129 = load i8*, i8** %128, align 8, !tbaa !16
  %130 = getelementptr i8, i8* %129, i64 -24
  %131 = bitcast i8* %130 to i64*
  %132 = load i64, i64* %131, align 8
  %133 = bitcast %"class.std::basic_ostream"* %127 to i8*
  %134 = add nsw i64 %132, 240
  %135 = getelementptr inbounds i8, i8* %133, i64 %134
  %136 = bitcast i8* %135 to %"class.std::ctype"**
  %137 = load %"class.std::ctype"*, %"class.std::ctype"** %136, align 8, !tbaa !18
  %138 = icmp eq %"class.std::ctype"* %137, null
  br i1 %138, label %139, label %140

139:                                              ; preds = %123
  call void @_ZSt16__throw_bad_castv() #10
  unreachable

140:                                              ; preds = %123
  %141 = getelementptr inbounds %"class.std::ctype", %"class.std::ctype"* %137, i64 0, i32 8
  %142 = load i8, i8* %141, align 8, !tbaa !22
  %143 = icmp eq i8 %142, 0
  br i1 %143, label %147, label %144

144:                                              ; preds = %140
  %145 = getelementptr inbounds %"class.std::ctype", %"class.std::ctype"* %137, i64 0, i32 9, i64 10
  %146 = load i8, i8* %145, align 1, !tbaa !24
  br label %153

147:                                              ; preds = %140
  call void @_ZNKSt5ctypeIcE13_M_widen_initEv(%"class.std::ctype"* nonnull align 8 dereferenceable(570) %137)
  %148 = bitcast %"class.std::ctype"* %137 to i8 (%"class.std::ctype"*, i8)***
  %149 = load i8 (%"class.std::ctype"*, i8)**, i8 (%"class.std::ctype"*, i8)*** %148, align 8, !tbaa !16
  %150 = getelementptr inbounds i8 (%"class.std::ctype"*, i8)*, i8 (%"class.std::ctype"*, i8)** %149, i64 6
  %151 = load i8 (%"class.std::ctype"*, i8)*, i8 (%"class.std::ctype"*, i8)** %150, align 8
  %152 = call signext i8 %151(%"class.std::ctype"* nonnull align 8 dereferenceable(570) %137, i8 signext 10)
  br label %153

153:                                              ; preds = %144, %147
  %154 = phi i8 [ %146, %144 ], [ %152, %147 ]
  %155 = call nonnull align 8 dereferenceable(8) %"class.std::basic_ostream"* @_ZNSo3putEc(%"class.std::basic_ostream"* nonnull align 8 dereferenceable(8) %127, i8 signext %154)
  %156 = call nonnull align 8 dereferenceable(8) %"class.std::basic_ostream"* @_ZNSo5flushEv(%"class.std::basic_ostream"* nonnull align 8 dereferenceable(8) %155)
  call void @llvm.lifetime.end.p0i8(i64 4, i8* nonnull %8) #9
  call void @llvm.lifetime.end.p0i8(i64 4, i8* nonnull %7) #9
  call void @llvm.lifetime.end.p0i8(i64 4, i8* nonnull %6) #9
  call void @llvm.lifetime.end.p0i8(i64 48, i8* nonnull %5) #9
  ret i32 0
}

; Function Attrs: argmemonly mustprogress nofree nosync nounwind willreturn
declare void @llvm.lifetime.start.p0i8(i64 immarg, i8* nocapture) #4

; Function Attrs: argmemonly mustprogress nofree nounwind willreturn
declare void @llvm.memcpy.p0i8.p0i8.i64(i8* noalias nocapture writeonly, i8* noalias nocapture readonly, i64, i1 immarg) #5

declare nonnull align 8 dereferenceable(16) %"class.std::basic_istream"* @_ZNSirsERi(%"class.std::basic_istream"* nonnull align 8 dereferenceable(16), i32* nonnull align 4 dereferenceable(4)) local_unnamed_addr #0

declare nonnull align 8 dereferenceable(8) %"class.std::basic_ostream"* @_ZNSolsEi(%"class.std::basic_ostream"* nonnull align 8 dereferenceable(8), i32) local_unnamed_addr #0

; Function Attrs: argmemonly mustprogress nofree nosync nounwind willreturn
declare void @llvm.lifetime.end.p0i8(i64 immarg, i8* nocapture) #4

declare nonnull align 8 dereferenceable(8) %"class.std::basic_ostream"* @_ZNSo3putEc(%"class.std::basic_ostream"* nonnull align 8 dereferenceable(8), i8 signext) local_unnamed_addr #0

declare nonnull align 8 dereferenceable(8) %"class.std::basic_ostream"* @_ZNSo5flushEv(%"class.std::basic_ostream"* nonnull align 8 dereferenceable(8)) local_unnamed_addr #0

; Function Attrs: noreturn
declare void @_ZSt16__throw_bad_castv() local_unnamed_addr #6

declare void @_ZNKSt5ctypeIcE13_M_widen_initEv(%"class.std::ctype"* nonnull align 8 dereferenceable(570)) local_unnamed_addr #0

; Function Attrs: sspstrong uwtable
define internal void @_GLOBAL__sub_I_1067.cpp() #7 section ".text.startup" {
  tail call void @_ZNSt8ios_base4InitC1Ev(%"class.std::ios_base::Init"* nonnull align 1 dereferenceable(1) @_ZStL8__ioinit)
  %1 = tail call i32 @__cxa_atexit(void (i8*)* bitcast (void (%"class.std::ios_base::Init"*)* @_ZNSt8ios_base4InitD1Ev to void (i8*)*), i8* getelementptr inbounds (%"class.std::ios_base::Init", %"class.std::ios_base::Init"* @_ZStL8__ioinit, i64 0, i32 0), i8* nonnull @__dso_handle) #9
  ret void
}

; Function Attrs: nofree nosync nounwind readnone willreturn
declare i32 @llvm.vector.reduce.add.v4i32(<4 x i32>) #8


!llvm.module.flags = !{!0, !1, !2, !3}
!llvm.ident = !{!4}

!0 = !{i32 1, !"wchar_size", i32 4}
!1 = !{i32 7, !"PIC Level", i32 2}
!2 = !{i32 7, !"PIE Level", i32 2}
!3 = !{i32 7, !"uwtable", i32 1}
!4 = !{!"clang version 13.0.0"}
!5 = !{!6, !6, i64 0}
!6 = !{!"int", !7, i64 0}
!7 = !{!"omnipotent char", !8, i64 0}
!8 = !{!"Simple C++ TBAA"}
!9 = distinct !{!9, !10, !11}
!10 = !{!"llvm.loop.mustprogress"}
!11 = !{!"llvm.loop.isvectorized", i32 1}
!12 = distinct !{!12, !13}
!13 = !{!"llvm.loop.unroll.disable"}
!14 = distinct !{!14, !10, !15, !11}
!15 = !{!"llvm.loop.unroll.runtime.disable"}
!16 = !{!17, !17, i64 0}
!17 = !{!"vtable pointer", !8, i64 0}
!18 = !{!19, !20, i64 240}
!19 = !{!"_ZTSSt9basic_iosIcSt11char_traitsIcEE", !20, i64 216, !7, i64 224, !21, i64 225, !20, i64 232, !20, i64 240, !20, i64 248, !20, i64 256}
!20 = !{!"any pointer", !7, i64 0}
!21 = !{!"bool", !7, i64 0}
!22 = !{!23, !7, i64 56}
!23 = !{!"_ZTSSt5ctypeIcE", !20, i64 16, !21, i64 24, !20, i64 32, !20, i64 40, !20, i64 48, !7, i64 56, !7, i64 57, !7, i64 313, !7, i64 569}
!24 = !{!7, !7, i64 0}
